target datalayout = "e-m:e-p270:32:32-p271:32:32-p272:64:64-i64:64-i128:128-f80:128-n8:16:32:64-S128"
target triple = "x86_64-pc-linux-gnu"

%struct.H5C_class_t = type { i32, ptr, i32, i32, ptr, ptr, ptr, ptr, ptr, ptr, ptr, ptr, ptr, ptr }
%struct.H5EA_hdr_t = type { %struct.H5C_cache_entry_t, %struct.H5EA_create_t, i64, %struct.H5EA_stat_t, %struct.anon.1, i64, i64, i64, ptr, i64, i8, i64, i64, i8, i64, ptr, i64, ptr, i8, ptr, ptr }
%struct.H5C_cache_entry_t = type { ptr, i64, i64, ptr, i8, ptr, i8, i8, i8, i8, i32, i8, i8, i8, i8, i8, i32, ptr, i32, i32, i32, i32, i32, i8, i8, ptr, ptr, ptr, ptr, ptr, ptr, i8, i32, i8, i64, ptr, i64, i64, i32, i8, i32, i32, i8, ptr, ptr, ptr }
%struct.H5EA_create_t = type { ptr, i8, i8, i8, i8, i8, i8 }
%struct.H5EA_stat_t = type { %struct.anon, %struct.anon.0 }
%struct.anon = type { i64, i64, i64 }
%struct.anon.0 = type { i64, i64, i64, i64, i64, i64 }
%struct.anon.1 = type { i64, ptr }

@.str = private unnamed_addr constant [101 x i8] c"generated/home/dtcxzyw/WorkSpace/Projects/compilers/llvm-opt-benchmark/bench/hdf5/hdf5/src/H5EAhdr.c\00", align 1
@H5E_EARRAY_g = external global i64, align 8
@H5AC_EARRAY_HDR = external constant [1 x %struct.H5C_class_t], align 16
@__func__.H5EA__hdr_unprotect = private unnamed_addr constant [20 x i8] c"H5EA__hdr_unprotect\00", align 1
@H5E_CANTUNPROTECT_g = external global i64, align 8
@.str.19 = private unnamed_addr constant [57 x i8] c"unable to unprotect extensible array hdr, address = %llu\00", align 1
@__func__.H5EA__hdr_delete = private unnamed_addr constant [17 x i8] c"H5EA__hdr_delete\00", align 1
@H5E_CANTDELETE_g = external global i64, align 8
@.str.20 = private unnamed_addr constant [46 x i8] c"unable to delete extensible array index block\00", align 1
@.str.21 = private unnamed_addr constant [42 x i8] c"unable to release extensible array header\00", align 1

; Function Attrs: nounwind uwtable
define i32 @H5EA__hdr_unprotect(ptr noundef %0, i32 noundef %1) #0 {
  %3 = alloca ptr, align 8
  %4 = alloca i32, align 4
  %5 = alloca i32, align 4
  %6 = alloca i8, align 1
  store ptr %0, ptr %3, align 8
  store i32 %1, ptr %4, align 4
  store i32 0, ptr %5, align 4
  store i8 0, ptr %6, align 1
  %7 = load ptr, ptr %3, align 8
  %8 = getelementptr inbounds %struct.H5EA_hdr_t, ptr %7, i32 0, i32 8
  %9 = load ptr, ptr %8, align 8
  %10 = load ptr, ptr %3, align 8
  %11 = getelementptr inbounds %struct.H5EA_hdr_t, ptr %10, i32 0, i32 6
  %12 = load i64, ptr %11, align 8
  %13 = load ptr, ptr %3, align 8
  %14 = load i32, ptr %4, align 4
  %15 = call i32 @H5AC_unprotect(ptr noundef %9, ptr noundef @H5AC_EARRAY_HDR, i64 noundef %12, ptr noundef %13, i32 noundef %14)
  %16 = icmp slt i32 %15, 0
  br i1 %16, label %17, label %35

17:                                               ; preds = %2
  br label %18

18:                                               ; preds = %17
  br label %19

19:                                               ; preds = %18
  br label %20

20:                                               ; preds = %19
  %21 = load i64, ptr @H5E_EARRAY_g, align 8
  %22 = load i64, ptr @H5E_CANTUNPROTECT_g, align 8
  %23 = load ptr, ptr %3, align 8
  %24 = getelementptr inbounds %struct.H5EA_hdr_t, ptr %23, i32 0, i32 6
  %25 = load i64, ptr %24, align 8
  %26 = call i32 (ptr, ptr, i32, i64, i64, ptr, ...) @H5E_printf_stack(ptr noundef @.str, ptr noundef @__func__.H5EA__hdr_unprotect, i32 noundef 677, i64 noundef %21, i64 noundef %22, ptr noundef @.str.19, i64 noundef %25)
  br label %27

27:                                               ; preds = %20
  store i8 1, ptr %6, align 1
  %28 = load i8, ptr %6, align 1
  %29 = trunc i8 %28 to i1
  %30 = zext i1 %29 to i8
  store i8 %30, ptr %6, align 1
  br label %31

31:                                               ; preds = %27
  br label %32

32:                                               ; preds = %31
  store i32 -1, ptr %5, align 4
  br label %36

33:                                               ; No predecessors!
  br label %34

34:                                               ; preds = %33
  br label %35

35:                                               ; preds = %34, %2
  br label %36

36:                                               ; preds = %35, %32
  %37 = load i32, ptr %5, align 4
  ret i32 %37
}

; Function Attrs: nounwind uwtable
define i32 @H5EA__hdr_delete(ptr noundef %0) #0 {
  %2 = alloca ptr, align 8
  %3 = alloca i32, align 4
  %4 = alloca i32, align 4
  %5 = alloca i8, align 1
  store ptr %0, ptr %2, align 8
  store i32 0, ptr %3, align 4
  store i32 0, ptr %4, align 4
  store i8 0, ptr %5, align 1
  %6 = load ptr, ptr %2, align 8
  %7 = getelementptr inbounds %struct.H5EA_hdr_t, ptr %6, i32 0, i32 2
  %8 = load i64, ptr %7, align 8
  %9 = icmp ne i64 %8, -1
  br i1 %9, label %10, label %30

10:                                               ; preds = %1
  %11 = load ptr, ptr %2, align 8
  %12 = call i32 @H5EA__iblock_delete(ptr noundef %11)
  %13 = icmp slt i32 %12, 0
  br i1 %13, label %14, label %29

14:                                               ; preds = %10
  br label %15

15:                                               ; preds = %14
  br label %16

16:                                               ; preds = %15
  br label %17

17:                                               ; preds = %16
  %18 = load i64, ptr @H5E_EARRAY_g, align 8
  %19 = load i64, ptr @H5E_CANTDELETE_g, align 8
  %20 = call i32 (ptr, ptr, i32, i64, i64, ptr, ...) @H5E_printf_stack(ptr noundef @.str, ptr noundef @__func__.H5EA__hdr_delete, i32 noundef 720, i64 noundef %18, i64 noundef %19, ptr noundef @.str.20)
  br label %21

21:                                               ; preds = %17
  store i8 1, ptr %5, align 1
  %22 = load i8, ptr %5, align 1
  %23 = trunc i8 %22 to i1
  %24 = zext i1 %23 to i8
  store i8 %24, ptr %5, align 1
  br label %25

25:                                               ; preds = %21
  br label %26

26:                                               ; preds = %25
  store i32 -1, ptr %4, align 4
  br label %33

27:                                               ; No predecessors!
  br label %28

28:                                               ; preds = %27
  br label %29

29:                                               ; preds = %28, %10
  br label %30

30:                                               ; preds = %29, %1
  %31 = load i32, ptr %3, align 4
  %32 = or i32 %31, 259
  store i32 %32, ptr %3, align 4
  br label %33

33:                                               ; preds = %50, %30, %26
  %34 = load ptr, ptr %2, align 8
  %35 = load i32, ptr %3, align 4
  %36 = call i32 @H5EA__hdr_unprotect(ptr noundef %34, i32 noundef %35)
  %37 = icmp slt i32 %36, 0
  br i1 %37, label %38, label %53

38:                                               ; preds = %33
  br label %39

39:                                               ; preds = %38
  br label %40

40:                                               ; preds = %39
  br label %41

41:                                               ; preds = %40
  %42 = load i64, ptr @H5E_EARRAY_g, align 8
  %43 = load i64, ptr @H5E_CANTUNPROTECT_g, align 8
  %44 = call i32 (ptr, ptr, i32, i64, i64, ptr, ...) @H5E_printf_stack(ptr noundef @.str, ptr noundef @__func__.H5EA__hdr_delete, i32 noundef 730, i64 noundef %42, i64 noundef %43, ptr noundef @.str.21)
  br label %45

45:                                               ; preds = %41
  store i8 1, ptr %5, align 1
  %46 = load i8, ptr %5, align 1
  %47 = trunc i8 %46 to i1
  %48 = zext i1 %47 to i8
  store i8 %48, ptr %5, align 1
  br label %49

49:                                               ; preds = %45
  br label %50

50:                                               ; preds = %49
  store i32 -1, ptr %4, align 4
  br label %33

51:                                               ; No predecessors!
  br label %52

52:                                               ; preds = %51
  br label %53

53:                                               ; preds = %52, %33
  %54 = load i32, ptr %4, align 4
  ret i32 %54
}