; Function Attrs: nounwind uwtable
define range(i32 -1, 1) i32 @H5EA__hdr_delete(ptr noundef %0) local_unnamed_addr #0 {
  %2 = getelementptr inbounds i8, ptr %0, i64 264
  %3 = load i64, ptr %2, align 8
  %.not = icmp eq i64 %3, -1
  br i1 %.not, label %.preheader, label %4

4:                                                ; preds = %1
  %5 = tail call i32 @H5EA__iblock_delete(ptr noundef nonnull %0) #6
  %6 = icmp slt i32 %5, 0
  br i1 %6, label %7, label %.preheader

7:                                                ; preds = %4
  %8 = load i64, ptr @H5E_EARRAY_g, align 8
  %9 = load i64, ptr @H5E_CANTDELETE_g, align 8
  %10 = tail call i32 (ptr, ptr, i32, i64, i64, ptr, ...) @H5E_printf_stack(ptr noundef nonnull @.str, ptr noundef nonnull @__func__.H5EA__hdr_delete, i32 noundef 720, i64 noundef %8, i64 noundef %9, ptr noundef nonnull @.str.20) #6
  br label %.preheader

.preheader:                                       ; preds = %1, %4, %7
  %.07.ph = phi i32 [ 0, %7 ], [ 259, %4 ], [ 259, %1 ]
  %.0.ph = phi i32 [ -1, %7 ], [ 0, %4 ], [ 0, %1 ]
  %11 = getelementptr inbounds i8, ptr %0, i64 384
  %12 = getelementptr inbounds i8, ptr %0, i64 368
  %13 = load ptr, ptr %11, align 8
  %14 = load i64, ptr %12, align 8
  %15 = tail call i32 @H5AC_unprotect(ptr noundef %13, ptr noundef nonnull @H5AC_EARRAY_HDR, i64 noundef %14, ptr noundef nonnull %0, i32 noundef %.07.ph) #6
  %16 = icmp slt i32 %15, 0
  br i1 %16, label %.lr.ph, label %H5EA__hdr_unprotect.exit

.lr.ph:                                           ; preds = %.preheader, %.lr.ph
  %17 = load i64, ptr @H5E_EARRAY_g, align 8
  %18 = load i64, ptr @H5E_CANTUNPROTECT_g, align 8
  %19 = load i64, ptr %12, align 8
  %20 = tail call i32 (ptr, ptr, i32, i64, i64, ptr, ...) @H5E_printf_stack(ptr noundef nonnull @.str, ptr noundef nonnull @__func__.H5EA__hdr_unprotect, i32 noundef 677, i64 noundef %17, i64 noundef %18, ptr noundef nonnull @.str.19, i64 noundef %19) #6
  %21 = load i64, ptr @H5E_EARRAY_g, align 8
  %22 = load i64, ptr @H5E_CANTUNPROTECT_g, align 8
  %23 = tail call i32 (ptr, ptr, i32, i64, i64, ptr, ...) @H5E_printf_stack(ptr noundef nonnull @.str, ptr noundef nonnull @__func__.H5EA__hdr_delete, i32 noundef 730, i64 noundef %21, i64 noundef %22, ptr noundef nonnull @.str.21) #6
  %24 = load ptr, ptr %11, align 8
  %25 = load i64, ptr %12, align 8
  %26 = tail call i32 @H5AC_unprotect(ptr noundef %24, ptr noundef nonnull @H5AC_EARRAY_HDR, i64 noundef %25, ptr noundef nonnull %0, i32 noundef %.07.ph) #6
  %27 = icmp slt i32 %26, 0
  br i1 %27, label %.lr.ph, label %H5EA__hdr_unprotect.exit

H5EA__hdr_unprotect.exit:                         ; preds = %.lr.ph, %.preheader
  %.0.lcssa = phi i32 [ %.0.ph, %.preheader ], [ -1, %.lr.ph ]
  ret i32 %.0.lcssa
}